; Function Attrs: mustprogress uwtable
define hidden void @_Z14mk_smt2_formatP4exprR19smt2_pp_environmentRK10params_refjPKcR7obj_refI3app11ast_managerER7sbufferI6symbolLj16EE(ptr noundef %n, ptr noundef nonnull align 8 dereferenceable(56) %env, ptr noundef nonnull align 8 dereferenceable(8) %p, i32 noundef %num_vars, ptr noundef %var_prefix, ptr noundef nonnull align 8 dereferenceable(16) %r, ptr noundef nonnull align 8 dereferenceable(144) %var_names) local_unnamed_addr #3 personality ptr @__gxx_personality_v0 {
entry:
  %pr = alloca %class.smt2_printer, align 8
  call void @_ZN12smt2_printerC2ER19smt2_pp_environmentRK10params_ref(ptr noundef nonnull align 8 dereferenceable(308) %pr, ptr noundef nonnull align 8 dereferenceable(56) %env, ptr noundef nonnull align 8 dereferenceable(8) %p)
  invoke void @_ZN12smt2_printerclEP4exprjPKcR7obj_refI3app11ast_managerER7sbufferI6symbolLj16EE(ptr noundef nonnull align 8 dereferenceable(308) %pr, ptr noundef %n, i32 noundef %num_vars, ptr noundef %var_prefix, ptr noundef nonnull align 8 dereferenceable(16) %r, ptr noundef nonnull align 8 dereferenceable(144) %var_names)
          to label %invoke.cont unwind label %lpad

invoke.cont:                                      ; preds = %entry
  call void @_ZN12smt2_printerD2Ev(ptr noundef nonnull align 8 dereferenceable(308) %pr) #19
  ret void

lpad:                                             ; preds = %entry
  %0 = landingpad { ptr, i32 }
          cleanup
  call void @_ZN12smt2_printerD2Ev(ptr noundef nonnull align 8 dereferenceable(308) %pr) #19
  resume { ptr, i32 } %0
}